(dp0
S'date'
p1
S'2017-12-18'
p2
sS'data'
p3
(lp4
(dp5
S'000503'
p6
I4
sa(dp7
S'002258'
p8
I4
sa(dp9
S'002408'
p10
I4
sa(dp11
S'002656'
p12
I6
sa(dp13
S'002840'
p14
I5
sa(dp15
S'300038'
p16
I4
sa(dp17
S'300110'
p18
I6
sa(dp19
S'300280'
p20
I8
sa(dp21
S'300325'
p22
I2
sa(dp23
S'600167'
p24
I5
sa(dp25
S'600206'
p26
I4
sa(dp27
S'600208'
p28
I4
sa(dp29
S'600280'
p30
I5
sa(dp31
S'600319'
p32
I3
sa(dp33
S'600521'
p34
I4
sa(dp35
S'000663'
p36
I3
sa(dp37
S'000955'
p38
S'1'
p39
sa(dp40
S'002049'
p41
I5
sa(dp42
S'002119'
p43
I3
sa(dp44
S'002156'
p45
I2
sa(dp46
S'002251'
p47
I5
sa(dp48
S'002294'
p49
I4
sa(dp50
S'002422'
p51
I4
sa(dp52
S'002427'
p53
I6
sa(dp54
S'002856'
p55
g39
sa(dp56
S'300130'
p57
g39
sa(dp58
S'300188'
p59
I5
sa(dp60
S'300223'
p61
g39
sa(dp62
S'300241'
p63
g39
sa(dp64
S'300308'
p65
I2
sa(dp66
S'300630'
p67
I7
sa(dp68
S'600048'
p69
g39
sa(dp70
S'600171'
p71
I6
sa(dp72
S'600283'
p73
I2
sa(dp74
S'600352'
p75
I3
sa(dp76
S'600460'
p77
I2
sa(dp78
S'600667'
p79
I2
sa(dp80
S'601313'
p81
g39
sa(dp82
S'000418'
p83
I5
sa(dp84
S'002001'
p85
S'1'
p86
sa(dp87
S'002321'
p88
I3
sa(dp89
S'002584'
p90
I6
sa(dp91
S'601155'
p92
I3
sa(dp93
S'000681'
p94
I3
sa(dp95
S'002079'
p96
S'1'
p97
sa(dp98
S'002129'
p99
I5
sa(dp100
S'002202'
p101
I3
sa(dp102
S'002244'
p103
I3
sa(dp104
S'002531'
p105
I3
sa(dp106
S'300046'
p107
g97
sa(dp108
S'300055'
p109
I3
sa(dp110
S'300102'
p111
I3
sa(dp112
S'300388'
p113
I3
sa(dp114
S'600330'
p115
I3
sa(dp116
S'600787'
p117
g97
sa(dp118
S'600835'
p119
I3
sa(dp120
S'601100'
p121
g97
sa(dp122
S'603005'
p123
g97
sa(dp124
S'603699'
p125
g97
sa(dp126
S'603899'
p127
I3
sa(dp128
S'000504'
p129
I4
sa(dp130
S'000755'
p131
I2
sa(dp132
S'002110'
p133
I2
sa(dp134
S'002245'
p135
I2
sa(dp136
S'002626'
p137
I2
sa(dp138
S'002760'
p139
I4
sa(dp140
S'002866'
p141
I2
sa(dp142
S'300009'
p143
I2
sa(dp144
S'600520'
p145
I4
sa(dp146
S'600859'
p147
I4
sa(dp148
S'601233'
p149
I2
sa(dp150
S'000759'
p151
I2
sa(dp152
S'002168'
p153
I2
sa(dp154
S'300074'
p155
I2
sa(dp156
S'300413'
p157
I2
sa(dp158
S'600271'
p159
I2
sa(dp160
S'600346'
p161
I2
sa(dp162
S'600600'
p163
I2
sa(dp164
S'000858'
p165
S'1'
p166
sa(dp167
S'002042'
p168
g166
sa(dp169
S'002356'
p170
g166
sa(dp171
S'002650'
p172
g166
sa(dp173
S'603939'
p174
g166
sas.