(dp0
S'date'
p1
S'2017-12-11'
p2
sS'data'
p3
(lp4
(dp5
S'000503'
p6
I3
sa(dp7
S'002258'
p8
I3
sa(dp9
S'002408'
p10
I2
sa(dp11
S'002656'
p12
I2
sa(dp13
S'002840'
p14
I3
sa(dp15
S'300038'
p16
I3
sa(dp17
S'300110'
p18
I3
sa(dp19
S'300280'
p20
I3
sa(dp21
S'300325'
p22
I2
sa(dp23
S'600167'
p24
I3
sa(dp25
S'600206'
p26
I3
sa(dp27
S'600208'
p28
I3
sa(dp29
S'600280'
p30
I3
sa(dp31
S'600319'
p32
I3
sa(dp33
S'600521'
p34
I3
sa(dp35
S'000663'
p36
S'1'
p37
sa(dp38
S'000955'
p39
g37
sa(dp40
S'002049'
p41
g37
sa(dp42
S'002119'
p43
g37
sa(dp44
S'002156'
p45
g37
sa(dp46
S'002251'
p47
g37
sa(dp48
S'002294'
p49
g37
sa(dp50
S'002422'
p51
g37
sa(dp52
S'002427'
p53
g37
sa(dp54
S'002856'
p55
g37
sa(dp56
S'300130'
p57
g37
sa(dp58
S'300188'
p59
g37
sa(dp60
S'300223'
p61
g37
sa(dp62
S'300241'
p63
g37
sa(dp64
S'300308'
p65
g37
sa(dp66
S'300630'
p67
g37
sa(dp68
S'600048'
p69
g37
sa(dp70
S'600171'
p71
g37
sa(dp72
S'600283'
p73
g37
sa(dp74
S'600352'
p75
g37
sa(dp76
S'600460'
p77
g37
sa(dp78
S'600667'
p79
g37
sa(dp80
S'601313'
p81
g37
sas.