(dp0
S'date'
p1
S'2017-12-09'
p2
sS'data'
p3
(lp4
(dp5
S'000703'
p6
I2
sa(dp7
S'000717'
p8
I5
sa(dp9
S'000789'
p10
I4
sa(dp11
S'002038'
p12
I5
sa(dp13
S'002042'
p14
I2
sa(dp15
S'002110'
p16
I6
sa(dp17
S'002118'
p18
I2
sa(dp19
S'002153'
p20
I2
sa(dp21
S'002178'
p22
I2
sa(dp23
S'002251'
p24
I2
sa(dp25
S'002512'
p26
I3
sa(dp27
S'002584'
p28
I5
sa(dp29
S'002798'
p30
I2
sa(dp31
S'002856'
p32
I2
sa(dp33
S'300241'
p34
I2
sa(dp35
S'300639'
p36
I3
sa(dp37
S'600019'
p38
I2
sa(dp39
S'600171'
p40
I6
sa(dp41
S'600271'
p42
I5
sa(dp43
S'600581'
p44
I2
sa(dp45
S'600585'
p46
I2
sa(dp47
S'601233'
p48
I3
sa(dp49
S'601313'
p50
I6
sa(dp51
S'601636'
p52
I3
sa(dp53
S'603002'
p54
I3
sa(dp55
S'603005'
p56
I6
sa(dp57
S'000636'
p58
I5
sa(dp59
S'000830'
p60
I2
sa(dp61
S'002001'
p62
S'1'
p63
sa(dp64
S'002119'
p65
I4
sa(dp66
S'002212'
p67
I4
sa(dp68
S'002245'
p69
I6
sa(dp70
S'002866'
p71
g63
sa(dp72
S'300130'
p73
g63
sa(dp74
S'300280'
p75
I6
sa(dp76
S'600209'
p77
g63
sa(dp78
S'000403'
p79
I3
sa(dp80
S'000663'
p81
I3
sa(dp82
S'002049'
p83
I3
sa(dp84
S'002079'
p85
I4
sa(dp86
S'002156'
p87
I4
sa(dp88
S'002408'
p89
I6
sa(dp90
S'002485'
p91
I3
sa(dp92
S'002656'
p93
I5
sa(dp94
S'300122'
p95
I3
sa(dp96
S'300188'
p97
I3
sa(dp98
S'300618'
p99
I3
sa(dp100
S'600179'
p101
I4
sa(dp102
S'600460'
p103
I5
sa(dp104
S'600507'
p105
I3
sa(dp106
S'600745'
p107
I3
sa(dp108
S'600835'
p109
I3
sa(dp110
S'601100'
p111
I4
sa(dp112
S'002422'
p113
S'1'
p114
sa(dp115
S'600029'
p116
g114
sa(dp117
S'600256'
p118
I2
sa(dp119
S'600280'
p120
I2
sa(dp121
S'600346'
p122
g114
sa(dp123
S'600355'
p124
g114
sa(dp125
S'002606'
p126
S'1'
p127
sa(dp128
S'002670'
p129
g127
sa(dp130
S'300325'
p131
I2
sa(dp132
S'300413'
p133
I2
sa(dp134
S'600206'
p135
I3
sa(dp136
S'600667'
p137
g127
sa(dp138
S'002840'
p139
I2
sa(dp140
S'300038'
p141
I2
sa(dp142
S'600208'
p143
I2
sa(dp144
S'600521'
p145
I2
sa(dp146
S'000503'
p147
S'1'
p148
sa(dp149
S'002258'
p150
g148
sa(dp151
S'300110'
p152
g148
sa(dp153
S'600167'
p154
g148
sa(dp155
S'600319'
p156
g148
sas.