(dp0
S'date'
p1
S'2017-11-28'
p2
sS'data'
p3
(lp4
(dp5
S'000703'
p6
S'1'
p7
sa(dp8
S'000717'
p9
g7
sa(dp10
S'000789'
p11
g7
sa(dp12
S'002038'
p13
g7
sa(dp14
S'002042'
p15
g7
sa(dp16
S'002110'
p17
g7
sa(dp18
S'002118'
p19
g7
sa(dp20
S'002153'
p21
g7
sa(dp22
S'002178'
p23
g7
sa(dp24
S'002251'
p25
g7
sa(dp26
S'002512'
p27
g7
sa(dp28
S'002584'
p29
g7
sa(dp30
S'002798'
p31
g7
sa(dp32
S'002856'
p33
g7
sa(dp34
S'300241'
p35
g7
sa(dp36
S'300639'
p37
g7
sa(dp38
S'600019'
p39
g7
sa(dp40
S'600171'
p41
g7
sa(dp42
S'600271'
p43
g7
sa(dp44
S'600581'
p45
g7
sa(dp46
S'600585'
p47
g7
sa(dp48
S'601233'
p49
g7
sa(dp50
S'601313'
p51
g7
sa(dp52
S'601636'
p53
g7
sa(dp54
S'603002'
p55
g7
sa(dp56
S'603005'
p57
g7
sas.