(dp0
S'date'
p1
S'2017-11-29'
p2
sS'data'
p3
(lp4
(dp5
S'000703'
p6
I2
sa(dp7
S'000717'
p8
I2
sa(dp9
S'000789'
p10
I2
sa(dp11
S'002038'
p12
I2
sa(dp13
S'002042'
p14
I2
sa(dp15
S'002110'
p16
I2
sa(dp17
S'002118'
p18
I2
sa(dp19
S'002153'
p20
I2
sa(dp21
S'002178'
p22
I2
sa(dp23
S'002251'
p24
I2
sa(dp25
S'002512'
p26
I2
sa(dp27
S'002584'
p28
I2
sa(dp29
S'002798'
p30
I2
sa(dp31
S'002856'
p32
I2
sa(dp33
S'300241'
p34
I2
sa(dp35
S'300639'
p36
I2
sa(dp37
S'600019'
p38
I2
sa(dp39
S'600171'
p40
I2
sa(dp41
S'600271'
p42
I2
sa(dp43
S'600581'
p44
I2
sa(dp45
S'600585'
p46
I2
sa(dp47
S'601233'
p48
I2
sa(dp49
S'601313'
p50
I2
sa(dp51
S'601636'
p52
I2
sa(dp53
S'603002'
p54
I2
sa(dp55
S'603005'
p56
I2
sas.