(dp0
S'date'
p1
S'2017-12-09'
p2
sS'data'
p3
(lp4
(dp5
S'000503'
p6
S'1'
p7
sa(dp8
S'002258'
p9
g7
sa(dp10
S'002408'
p11
g7
sa(dp12
S'002656'
p13
g7
sa(dp14
S'002840'
p15
g7
sa(dp16
S'300038'
p17
g7
sa(dp18
S'300110'
p19
g7
sa(dp20
S'300280'
p21
g7
sa(dp22
S'300325'
p23
g7
sa(dp24
S'600167'
p25
g7
sa(dp26
S'600206'
p27
g7
sa(dp28
S'600208'
p29
g7
sa(dp30
S'600280'
p31
g7
sa(dp32
S'600319'
p33
g7
sa(dp34
S'600521'
p35
g7
sas.