(dp0
S'date'
p1
S'2017-12-25'
p2
sS'data'
p3
(lp4
(dp5
S'000503'
p6
I5
sa(dp7
S'002258'
p8
I4
sa(dp9
S'002408'
p10
I4
sa(dp11
S'002656'
p12
I6
sa(dp13
S'002840'
p14
I6
sa(dp15
S'300038'
p16
I4
sa(dp17
S'300110'
p18
I6
sa(dp19
S'300280'
p20
I8
sa(dp21
S'300325'
p22
I2
sa(dp23
S'600167'
p24
I5
sa(dp25
S'600206'
p26
I4
sa(dp27
S'600208'
p28
I4
sa(dp29
S'600280'
p30
I5
sa(dp31
S'600319'
p32
I3
sa(dp33
S'600521'
p34
I4
sa(dp35
S'000663'
p36
I3
sa(dp37
S'000955'
p38
S'1'
p39
sa(dp40
S'002049'
p41
I5
sa(dp42
S'002119'
p43
I3
sa(dp44
S'002156'
p45
I2
sa(dp46
S'002251'
p47
I6
sa(dp48
S'002294'
p49
I4
sa(dp50
S'002422'
p51
I4
sa(dp52
S'002427'
p53
I5
sa(dp54
S'002856'
p55
g39
sa(dp56
S'300130'
p57
g39
sa(dp58
S'300188'
p59
I5
sa(dp60
S'300223'
p61
g39
sa(dp62
S'300241'
p63
g39
sa(dp64
S'300308'
p65
I2
sa(dp66
S'300630'
p67
I7
sa(dp68
S'600048'
p69
I2
sa(dp70
S'600171'
p71
I6
sa(dp72
S'600283'
p73
I2
sa(dp74
S'600352'
p75
I3
sa(dp76
S'600460'
p77
I2
sa(dp78
S'600667'
p79
I2
sa(dp80
S'601313'
p81
g39
sa(dp82
S'000418'
p83
I4
sa(dp84
S'002001'
p85
I2
sa(dp86
S'002321'
p87
I3
sa(dp88
S'002584'
p89
I6
sa(dp90
S'601155'
p91
I4
sa(dp92
S'000681'
p93
I3
sa(dp94
S'002079'
p95
S'1'
p96
sa(dp97
S'002129'
p98
I5
sa(dp99
S'002202'
p100
I4
sa(dp101
S'002244'
p102
I3
sa(dp103
S'002531'
p104
I3
sa(dp105
S'300046'
p106
g96
sa(dp107
S'300055'
p108
I3
sa(dp109
S'300102'
p110
I3
sa(dp111
S'300388'
p112
I3
sa(dp113
S'600330'
p114
I3
sa(dp115
S'600787'
p116
g96
sa(dp117
S'600835'
p118
I3
sa(dp119
S'601100'
p120
g96
sa(dp121
S'603005'
p122
g96
sa(dp123
S'603699'
p124
g96
sa(dp125
S'603899'
p126
I3
sa(dp127
S'000504'
p128
I4
sa(dp129
S'000755'
p130
I2
sa(dp131
S'002110'
p132
I2
sa(dp133
S'002245'
p134
I2
sa(dp135
S'002626'
p136
I2
sa(dp137
S'002760'
p138
I4
sa(dp139
S'002866'
p140
I2
sa(dp141
S'300009'
p142
I2
sa(dp143
S'600520'
p144
I4
sa(dp145
S'600859'
p146
I4
sa(dp147
S'601233'
p148
I2
sa(dp149
S'000759'
p150
I2
sa(dp151
S'002168'
p152
I2
sa(dp153
S'300074'
p154
I2
sa(dp155
S'300413'
p156
I2
sa(dp157
S'600271'
p158
I2
sa(dp159
S'600346'
p160
I2
sa(dp161
S'600600'
p162
I3
sa(dp163
S'000333'
p164
S'1'
p165
sa(dp166
S'000703'
p167
g165
sa(dp168
S'002293'
p169
g165
sa(dp170
S'002311'
p171
g165
sa(dp172
S'002313'
p173
g165
sa(dp174
S'002320'
p175
g165
sa(dp176
S'002508'
p177
g165
sa(dp178
S'002650'
p179
g165
sa(dp180
S'300225'
p181
g165
sa(dp182
S'300349'
p183
g165
sa(dp184
S'600029'
p185
g165
sa(dp186
S'600115'
p187
g165
sa(dp188
S'600165'
p189
g165
sa(dp190
S'600176'
p191
g165
sa(dp192
S'600856'
p193
g165
sa(dp194
S'601939'
p195
g165
sa(dp196
S'603377'
p197
g165
sa(dp198
S'603939'
p199
g165
sas.