(dp0
S'date'
p1
S'2017-12-04'
p2
sS'data'
p3
(lp4
(dp5
S'000703'
p6
I2
sa(dp7
S'000717'
p8
I5
sa(dp9
S'000789'
p10
I3
sa(dp11
S'002038'
p12
I5
sa(dp13
S'002042'
p14
I2
sa(dp15
S'002110'
p16
I6
sa(dp17
S'002118'
p18
I2
sa(dp19
S'002153'
p20
I2
sa(dp21
S'002178'
p22
I2
sa(dp23
S'002251'
p24
I2
sa(dp25
S'002512'
p26
I3
sa(dp27
S'002584'
p28
I5
sa(dp29
S'002798'
p30
I2
sa(dp31
S'002856'
p32
I2
sa(dp33
S'300241'
p34
I2
sa(dp35
S'300639'
p36
I3
sa(dp37
S'600019'
p38
I2
sa(dp39
S'600171'
p40
I5
sa(dp41
S'600271'
p42
I5
sa(dp43
S'600581'
p44
I2
sa(dp45
S'600585'
p46
I2
sa(dp47
S'601233'
p48
I2
sa(dp49
S'601313'
p50
I6
sa(dp51
S'601636'
p52
I2
sa(dp53
S'603002'
p54
I3
sa(dp55
S'603005'
p56
I5
sa(dp57
S'000636'
p58
I4
sa(dp59
S'000830'
p60
S'1'
p61
sa(dp62
S'002001'
p63
g61
sa(dp64
S'002119'
p65
I4
sa(dp66
S'002212'
p67
I4
sa(dp68
S'002245'
p69
I4
sa(dp70
S'002866'
p71
g61
sa(dp72
S'300130'
p73
g61
sa(dp74
S'300280'
p75
I4
sa(dp76
S'600209'
p77
g61
sa(dp78
S'000403'
p79
I3
sa(dp80
S'000663'
p81
I3
sa(dp82
S'002049'
p83
I3
sa(dp84
S'002079'
p85
I3
sa(dp86
S'002156'
p87
I3
sa(dp88
S'002408'
p89
I3
sa(dp90
S'002485'
p91
I3
sa(dp92
S'002656'
p93
I3
sa(dp94
S'300122'
p95
I3
sa(dp96
S'300188'
p97
I3
sa(dp98
S'300618'
p99
I3
sa(dp100
S'600179'
p101
I3
sa(dp102
S'600460'
p103
I3
sa(dp104
S'600507'
p105
I3
sa(dp106
S'600745'
p107
I3
sa(dp108
S'600835'
p109
I3
sa(dp110
S'601100'
p111
I3
sas.